; Function Attrs: nofree norecurse nosync nounwind memory(read, inaccessiblemem: none) uwtable
define i32 @Gia_ManMulFindMaxSize(ptr noundef readonly captures(none) %0, ptr noundef readonly captures(none) %1) local_unnamed_addr #4 {
  %3 = getelementptr i8, ptr %0, i64 4
  %.val16 = load i32, ptr %3, align 4, !tbaa !36
  %4 = icmp sgt i32 %.val16, 0
  br i1 %4, label %.lr.ph, label %.critedge

.lr.ph:                                           ; preds = %2
  %5 = getelementptr i8, ptr %1, i64 8
  %.val15 = load ptr, ptr %5, align 8, !tbaa !35
  %6 = getelementptr i8, ptr %0, i64 8
  %wide.trip.count = zext nneg i32 %.val16 to i64
  br label %7

7:                                                ; preds = %.lr.ph, %14
  %indvars.iv = phi i64 [ 0, %.lr.ph ], [ %indvars.iv.next, %14 ]
  %.021 = phi i32 [ 0, %.lr.ph ], [ %.1, %14 ]
  %.01120 = phi i32 [ -1, %.lr.ph ], [ %.112, %14 ]
  %8 = getelementptr inbounds nuw i32, ptr %.val15, i64 %indvars.iv
  %9 = load i32, ptr %8, align 4, !tbaa !29
  %.not = icmp eq i32 %9, 0
  br i1 %.not, label %10, label %14

10:                                               ; preds = %7
  %.val17 = load ptr, ptr %6, align 8, !tbaa !39
  %11 = getelementptr %struct.Vec_Int_t_, ptr %.val17, i64 %indvars.iv, i32 1
  %.val14 = load i32, ptr %11, align 4, !tbaa !33
  %12 = icmp slt i32 %.021, %.val14
  %13 = trunc nuw nsw i64 %indvars.iv to i32
  %spec.select = select i1 %12, i32 %13, i32 %.01120
  %spec.select18 = tail call i32 @llvm.smax.i32(i32 %.021, i32 %.val14)
  br label %14

14:                                               ; preds = %10, %7
  %.112 = phi i32 [ %.01120, %7 ], [ %spec.select, %10 ]
  %.1 = phi i32 [ %.021, %7 ], [ %spec.select18, %10 ]
  %indvars.iv.next = add nuw nsw i64 %indvars.iv, 1
  %exitcond.not = icmp eq i64 %indvars.iv.next, %wide.trip.count
  br i1 %exitcond.not, label %.critedge, label %7, !llvm.loop !45

.critedge:                                        ; preds = %14, %2
  %.011.lcssa = phi i32 [ -1, %2 ], [ %.112, %14 ]
  ret i32 %.011.lcssa
}